../../build/src/EnergyPlus/CMakeFiles/EnergyPlusLib.dir/HeatBalanceIntRadExchange.cc.o:
(__TEXT,__text) section
__ZN10EnergyPlus25HeatBalanceIntRadExchange29CalcInteriorRadExchangeVectorEN9ObjexxFCL8FArray1SIdEERNS1_7FArray1IdEE:
0000000000000000	pushq	%rbp
0000000000000001	movq	%rsp,%rbp
0000000000000004	pushq	%r15
0000000000000006	pushq	%r14
0000000000000008	pushq	%r13
000000000000000a	pushq	%r12
000000000000000c	pushq	%rbx
000000000000000d	subq	$0x38,%rsp
0000000000000011	movq	%rsi,0xd0(%rbp)
0000000000000015	movq	%rdi,0xa0(%rbp)
0000000000000019	movb	__ZGVZN10EnergyPlus25HeatBalanceIntRadExchange29CalcInteriorRadExchangeVectorEN9ObjexxFCL8FArray1SIdEERNS1_7FArray1IdEEE26SurfaceTempInKto4thPrecalc(%rip),%al
000000000000001f	testb	%al,%al
0000000000000021	jne	0x00000065
0000000000000023	leaq	__ZGVZN10EnergyPlus25HeatBalanceIntRadExchange29CalcInteriorRadExchangeVectorEN9ObjexxFCL8FArray1SIdEERNS1_7FArray1IdEEE26SurfaceTempInKto4thPrecalc(%rip),%rdi
000000000000002a	callq	___cxa_guard_acquire
000000000000002f	testl	%eax,%eax
0000000000000031	je	0x00000065
0000000000000033	leaq	__ZZN10EnergyPlus25HeatBalanceIntRadExchange29CalcInteriorRadExchangeVectorEN9ObjexxFCL8FArray1SIdEERNS1_7FArray1IdEEE26SurfaceTempInKto4thPrecalc(%rip),%rdi
000000000000003a	callq	__ZN9ObjexxFCL8FArray1DIdEC2Ev
000000000000003f	movq	__ZN9ObjexxFCL8FArray1DIdED1Ev(%rip),%rdi
0000000000000046	leaq	__ZZN10EnergyPlus25HeatBalanceIntRadExchange29CalcInteriorRadExchangeVectorEN9ObjexxFCL8FArray1SIdEERNS1_7FArray1IdEEE26SurfaceTempInKto4thPrecalc(%rip),%rsi
000000000000004d	movq	___dso_handle(%rip),%rdx
0000000000000054	callq	___cxa_atexit
0000000000000059	leaq	__ZGVZN10EnergyPlus25HeatBalanceIntRadExchange29CalcInteriorRadExchangeVectorEN9ObjexxFCL8FArray1SIdEERNS1_7FArray1IdEEE26SurfaceTempInKto4thPrecalc(%rip),%rdi
0000000000000060	callq	___cxa_guard_release
0000000000000065	movb	__ZGVZN10EnergyPlus25HeatBalanceIntRadExchange29CalcInteriorRadExchangeVectorEN9ObjexxFCL8FArray1SIdEERNS1_7FArray1IdEEE13LWRadFromSurf(%rip),%al
000000000000006b	testb	%al,%al
000000000000006d	jne	0x000000b1
000000000000006f	leaq	__ZGVZN10EnergyPlus25HeatBalanceIntRadExchange29CalcInteriorRadExchangeVectorEN9ObjexxFCL8FArray1SIdEERNS1_7FArray1IdEEE13LWRadFromSurf(%rip),%rdi
0000000000000076	callq	___cxa_guard_acquire
000000000000007b	testl	%eax,%eax
000000000000007d	je	0x000000b1
000000000000007f	leaq	__ZZN10EnergyPlus25HeatBalanceIntRadExchange29CalcInteriorRadExchangeVectorEN9ObjexxFCL8FArray1SIdEERNS1_7FArray1IdEEE13LWRadFromSurf(%rip),%rdi
0000000000000086	callq	__ZN9ObjexxFCL8FArray1DIdEC2Ev
000000000000008b	movq	__ZN9ObjexxFCL8FArray1DIdED1Ev(%rip),%rdi
0000000000000092	leaq	__ZZN10EnergyPlus25HeatBalanceIntRadExchange29CalcInteriorRadExchangeVectorEN9ObjexxFCL8FArray1SIdEERNS1_7FArray1IdEEE13LWRadFromSurf(%rip),%rsi
0000000000000099	movq	___dso_handle(%rip),%rdx
00000000000000a0	callq	___cxa_atexit
00000000000000a5	leaq	__ZGVZN10EnergyPlus25HeatBalanceIntRadExchange29CalcInteriorRadExchangeVectorEN9ObjexxFCL8FArray1SIdEERNS1_7FArray1IdEEE13LWRadFromSurf(%rip),%rdi
00000000000000ac	callq	___cxa_guard_release
00000000000000b1	movq	__ZN10EnergyPlus11DataGlobals10NumOfZonesE(%rip),%rax
00000000000000b8	movl	(%rax),%eax
00000000000000ba	movl	%eax,0xb4(%rbp)
00000000000000bd	testl	%eax,%eax
00000000000000bf	jle	0x000002ef
00000000000000c5	movq	__ZN10EnergyPlus25DataViewFactorInformation8ZoneInfoE(%rip),%rax
00000000000000cc	movq	0x30(%rax),%rax
00000000000000d0	movq	%rax,0xb8(%rbp)
00000000000000d4	movq	__ZN10EnergyPlus11DataGlobals10KelvinConvE(%rip),%rax
00000000000000db	movsd	(%rax),%xmm0
00000000000000df	movq	__ZZN10EnergyPlus25HeatBalanceIntRadExchange29CalcInteriorRadExchangeVectorEN9ObjexxFCL8FArray1SIdEERNS1_7FArray1IdEEE26SurfaceTempInKto4thPrecalc+0x00000010(%rip),%r12
00000000000000e6	movq	__ZZN10EnergyPlus25HeatBalanceIntRadExchange29CalcInteriorRadExchangeVectorEN9ObjexxFCL8FArray1SIdEERNS1_7FArray1IdEEE26SurfaceTempInKto4thPrecalc+0x00000030(%rip),%rsi
00000000000000ed	movq	__ZZN10EnergyPlus25HeatBalanceIntRadExchange29CalcInteriorRadExchangeVectorEN9ObjexxFCL8FArray1SIdEERNS1_7FArray1IdEEE13LWRadFromSurf+0x00000030(%rip),%rdi
00000000000000f4	movq	__ZZN10EnergyPlus25HeatBalanceIntRadExchange29CalcInteriorRadExchangeVectorEN9ObjexxFCL8FArray1SIdEERNS1_7FArray1IdEEE13LWRadFromSurf+0x00000010(%rip),%r11
00000000000000fb	movl	$0x00000001,%eax
0000000000000100	movsd	0x0001ff08(%rip),%xmm1
0000000000000108	movapd	0x0001fe40(%rip),%xmm2
0000000000000110	movq	%rax,0xc0(%rbp)
0000000000000114	imulq	$0x000006b0,%rax,%r8
000000000000011b	movq	0xb8(%rbp),%rax
000000000000011f	movl	0x18(%rax,%r8),%ebx
0000000000000124	testl	%ebx,%ebx
0000000000000126	jle	0x000002de
000000000000012c	movq	0xb8(%rbp),%rax
0000000000000130	movq	0x00000530(%rax,%r8),%r9
0000000000000138	movq	0xa0(%rbp),%rax
000000000000013c	movq	0x30(%rax),%r10
0000000000000140	movq	0x08(%rax),%r14
0000000000000144	movq	0x28(%rax),%rax
0000000000000148	xorl	%ecx,%ecx
000000000000014a	nopw	__ZN10EnergyPlus25HeatBalanceIntRadExchange29CalcInteriorRadExchangeVectorEN9ObjexxFCL8FArray1SIdEERNS1_7FArray1IdEE(%rax,%rax)
0000000000000150	movslq	(%r9,%rcx,4),%rdx
0000000000000154	imulq	%rax,%rdx
0000000000000158	addq	%r10,%rdx
000000000000015b	movsd	(%r14,%rdx,8),%xmm3
0000000000000161	addsd	%xmm0,%xmm3
0000000000000165	mulsd	%xmm3,%xmm3
0000000000000169	mulsd	%xmm3,%xmm3
000000000000016d	movsd	%xmm3,(%r12,%rcx,8)
0000000000000173	incq	%rcx
0000000000000176	cmpl	%ebx,%ecx
0000000000000178	jl	0x100000150
000000000000017a	testl	%ebx,%ebx
000000000000017c	jle	0x000002de
0000000000000182	movq	0xb8(%rbp),%rax
0000000000000186	movq	0x00000550(%rax,%r8),%r10
000000000000018e	leaq	0x00000158(%rax,%r8),%r13
0000000000000196	leaq	0x00000150(%rax,%r8),%r15
000000000000019e	leal	0x01(%rbx),%r8d
00000000000001a2	leal	0xff(%rbx),%eax
00000000000001a5	leaq	(%r11,%rax,8),%rcx
00000000000001a9	movq	%rcx,0xa8(%rbp)
00000000000001ad	leaq	(%r12,%rax,8),%rcx
00000000000001b1	movq	%rcx,0xc8(%rbp)
00000000000001b5	leaq	0x01(%rax),%r14
00000000000001b9	movl	$0x00000001,%r9d
00000000000001bf	nop
00000000000001c0	movsd	(%rsi,%r9,8),%xmm3
00000000000001c6	movq	__ZN10EnergyPlus25HeatBalanceIntRadExchange29CalcInteriorRadExchangeVectorEN9ObjexxFCL8FArray1SIdEERNS1_7FArray1IdEE(%r13),%rcx
00000000000001ca	leaq	(%rcx,%r9),%rax
00000000000001ce	shlq	$0x03,%rax
00000000000001d2	addq	(%r15),%rax
00000000000001d5	shlq	$0x03,%rcx
00000000000001d9	xorl	%edx,%edx
00000000000001db	nopl	__ZN10EnergyPlus25HeatBalanceIntRadExchange29CalcInteriorRadExchangeVectorEN9ObjexxFCL8FArray1SIdEERNS1_7FArray1IdEE(%rax,%rax)
00000000000001e0	movsd	0x08(%rsi,%rdx,8),%xmm4
00000000000001e6	subsd	%xmm3,%xmm4
00000000000001ea	mulsd	(%rax),%xmm4
00000000000001ee	movsd	%xmm4,0x08(%rdi,%rdx,8)
00000000000001f4	incq	%rdx
00000000000001f7	addq	%rcx,%rax
00000000000001fa	cmpl	%ebx,%edx
00000000000001fc	jl	0x1000001e0
00000000000001fe	testl	%ebx,%ebx
0000000000000200	jle	0x000002ab
0000000000000206	movq	%r10,%rcx
0000000000000209	movq	%r14,%r10
000000000000020c	movq	$0x00000001fffffffc,%rax
0000000000000216	andq	%rax,%r10
0000000000000219	movl	$__ZN10EnergyPlus25HeatBalanceIntRadExchange29CalcInteriorRadExchangeVectorEN9ObjexxFCL8FArray1SIdEERNS1_7FArray1IdEE,%eax
000000000000021e	je	0x00000286
0000000000000220	cmpq	0xc8(%rbp),%r11
0000000000000224	ja	0x00000240
0000000000000226	cmpq	0xa8(%rbp),%r12
000000000000022a	movl	$__ZN10EnergyPlus25HeatBalanceIntRadExchange29CalcInteriorRadExchangeVectorEN9ObjexxFCL8FArray1SIdEERNS1_7FArray1IdEE,%eax
000000000000022f	jbe	0x00000286
0000000000000231	nopl	%cs:__ZN10EnergyPlus25HeatBalanceIntRadExchange29CalcInteriorRadExchangeVectorEN9ObjexxFCL8FArray1SIdEERNS1_7FArray1IdEE(%rax,%rax)
0000000000000240	pshufd	$0x44,%xmm3,%xmm4
0000000000000245	xorl	%eax,%eax
0000000000000247	nopw	__ZN10EnergyPlus25HeatBalanceIntRadExchange29CalcInteriorRadExchangeVectorEN9ObjexxFCL8FArray1SIdEERNS1_7FArray1IdEE(%rax,%rax)
0000000000000250	movupd	(%r12,%rax,8),%xmm5
0000000000000256	movupd	0x10(%r12,%rax,8),%xmm6
000000000000025d	subpd	%xmm4,%xmm5
0000000000000261	subpd	%xmm4,%xmm6
0000000000000265	mulpd	%xmm2,%xmm5
0000000000000269	mulpd	%xmm2,%xmm6
000000000000026d	movupd	%xmm5,(%r11,%rax,8)
0000000000000273	movupd	%xmm6,0x10(%r11,%rax,8)
000000000000027a	addq	$0x04,%rax
000000000000027e	cmpq	%rax,%r10
0000000000000281	jne	0x100000250
0000000000000283	movq	%r10,%rax
0000000000000286	cmpq	%rax,%r14
0000000000000289	movq	%rcx,%r10
000000000000028c	je	0x000002ab
000000000000028e	nop
0000000000000290	movsd	(%r12,%rax,8),%xmm4
0000000000000296	subsd	%xmm3,%xmm4
000000000000029a	mulsd	%xmm1,%xmm4
000000000000029e	movsd	%xmm4,(%r11,%rax,8)
00000000000002a4	incq	%rax
00000000000002a7	cmpl	%ebx,%eax
00000000000002a9	jl	0x100000290
00000000000002ab	movslq	(%r10,%r9,4),%rax
00000000000002af	movq	0xd0(%rbp),%rcx
00000000000002b3	movq	0x30(%rcx),%rcx
00000000000002b7	movsd	(%rcx,%rax,8),%xmm3
00000000000002bc	xorl	%edx,%edx
00000000000002be	nop
00000000000002c0	addsd	0x08(%rdi,%rdx,8),%xmm3
00000000000002c6	movsd	%xmm3,(%rcx,%rax,8)
00000000000002cb	incq	%rdx
00000000000002ce	cmpl	%ebx,%edx
00000000000002d0	jl	0x1000002c0
00000000000002d2	incq	%r9
00000000000002d5	cmpl	%r8d,%r9d
00000000000002d8	jne	0x1000001c0
00000000000002de	movq	0xc0(%rbp),%rax
00000000000002e2	cmpl	0xb4(%rbp),%eax
00000000000002e5	leaq	0x01(%rax),%rax
00000000000002e9	jl	0x100000110
00000000000002ef	addq	$0x38,%rsp
00000000000002f3	popq	%rbx
00000000000002f4	popq	%r12
00000000000002f6	popq	%r13
00000000000002f8	popq	%r14
00000000000002fa	popq	%r15
00000000000002fc	popq	%rbp
00000000000002fd	ret
